; Function Attrs: mustprogress nofree norecurse nounwind willreturn memory(argmem: readwrite) uwtable
define dso_local void @_ZN4absl18container_internal16RecordInsertSlowEPNS0_14HashtablezInfoEmm(ptr noundef captures(none) %0, i64 noundef %1, i64 noundef %2) local_unnamed_addr #6 {
  %4 = lshr i64 %2, 4
  %5 = getelementptr inbounds nuw i8, ptr %0, i64 88
  %6 = atomicrmw and ptr %5, i64 %1 monotonic, align 8
  %7 = getelementptr inbounds nuw i8, ptr %0, i64 80
  %8 = atomicrmw or ptr %7, i64 %1 monotonic, align 8
  %9 = getelementptr inbounds nuw i8, ptr %0, i64 96
  %10 = atomicrmw xor ptr %9, i64 %1 monotonic, align 8
  %11 = getelementptr inbounds nuw i8, ptr %0, i64 64
  %12 = load atomic i64, ptr %11 monotonic, align 8
  %.sroa.speculated = tail call i64 @llvm.umax.i64(i64 %12, i64 %4)
  store atomic i64 %.sroa.speculated, ptr %11 monotonic, align 8
  %13 = getelementptr inbounds nuw i8, ptr %0, i64 72
  %14 = atomicrmw add ptr %13, i64 %4 monotonic, align 8
  %15 = getelementptr inbounds nuw i8, ptr %0, i64 40
  %16 = atomicrmw add ptr %15, i64 1 monotonic, align 8
  ret void
}